target datalayout = "e-m:e-p270:32:32-p271:32:32-p272:64:64-i64:64-i128:128-f80:128-n8:16:32:64-S128"
target triple = "x86_64-pc-linux-gnu"

@.str.20 = private unnamed_addr constant [27 x i8] c"Haptic device %u not found\00", align 1

; Function Attrs: nounwind uwtable
define internal zeroext i1 @SDL_GetHapticIndex(i32 noundef %0, ptr noundef %1) #0 {
  %3 = alloca i1, align 1
  %4 = alloca i32, align 4
  %5 = alloca ptr, align 8
  %6 = alloca i32, align 4
  %7 = alloca i32, align 4
  %8 = alloca i32, align 4
  %9 = alloca i32, align 4
  store i32 %0, ptr %4, align 4
  store ptr %1, ptr %5, align 8
  call void @llvm.lifetime.start.p0(i64 4, ptr %6) #7
  call void @llvm.lifetime.start.p0(i64 4, ptr %7) #7
  %10 = load i32, ptr %4, align 4
  %11 = icmp ugt i32 %10, 0
  br i1 %11, label %12, label %35

12:                                               ; preds = %2
  %13 = call i32 @SDL_SYS_NumHaptics()
  store i32 %13, ptr %6, align 4
  store i32 0, ptr %7, align 4
  br label %14

14:                                               ; preds = %31, %12
  %15 = load i32, ptr %7, align 4
  %16 = load i32, ptr %6, align 4
  %17 = icmp slt i32 %15, %16
  br i1 %17, label %18, label %34

18:                                               ; preds = %14
  call void @llvm.lifetime.start.p0(i64 4, ptr %8) #7
  %19 = load i32, ptr %7, align 4
  %20 = call i32 @SDL_SYS_HapticInstanceID(i32 noundef %19)
  store i32 %20, ptr %8, align 4
  %21 = load i32, ptr %8, align 4
  %22 = load i32, ptr %4, align 4
  %23 = icmp eq i32 %21, %22
  br i1 %23, label %24, label %27

24:                                               ; preds = %18
  %25 = load i32, ptr %7, align 4
  %26 = load ptr, ptr %5, align 8
  store i32 %25, ptr %26, align 4
  store i1 true, ptr %3, align 1
  store i32 1, ptr %9, align 4
  br label %28

27:                                               ; preds = %18
  store i32 0, ptr %9, align 4
  br label %28

28:                                               ; preds = %27, %24
  call void @llvm.lifetime.end.p0(i64 4, ptr %8) #7
  %29 = load i32, ptr %9, align 4
  switch i32 %29, label %38 [
    i32 0, label %30
  ]

30:                                               ; preds = %28
  br label %31

31:                                               ; preds = %30
  %32 = load i32, ptr %7, align 4
  %33 = add nsw i32 %32, 1
  store i32 %33, ptr %7, align 4
  br label %14, !llvm.loop !5

34:                                               ; preds = %14
  br label %35

35:                                               ; preds = %34, %2
  %36 = load i32, ptr %4, align 4
  %37 = call zeroext i1 (ptr, ...) @SDL_SetError_REAL(ptr noundef @.str.20, i32 noundef %36)
  store i1 false, ptr %3, align 1
  store i32 1, ptr %9, align 4
  br label %38

38:                                               ; preds = %35, %28
  call void @llvm.lifetime.end.p0(i64 4, ptr %7) #7
  call void @llvm.lifetime.end.p0(i64 4, ptr %6) #7
  %39 = load i1, ptr %3, align 1
  ret i1 %39
}

; Function Attrs: nounwind uwtable
define hidden ptr @SDL_GetHapticNameForID_REAL(i32 noundef %0) #0 {
  %2 = alloca i32, align 4
  %3 = alloca i32, align 4
  %4 = alloca ptr, align 8
  store i32 %0, ptr %2, align 4
  call void @llvm.lifetime.start.p0(i64 4, ptr %3) #7
  call void @llvm.lifetime.start.p0(i64 8, ptr %4) #7
  store ptr null, ptr %4, align 8
  %5 = load i32, ptr %2, align 4
  %6 = call zeroext i1 @SDL_GetHapticIndex(i32 noundef %5, ptr noundef %3)
  br i1 %6, label %7, label %11

7:                                                ; preds = %1
  %8 = load i32, ptr %3, align 4
  %9 = call ptr @SDL_SYS_HapticName(i32 noundef %8)
  %10 = call ptr @SDL_GetPersistentString(ptr noundef %9)
  store ptr %10, ptr %4, align 8
  br label %11

11:                                               ; preds = %7, %1
  %12 = load ptr, ptr %4, align 8
  call void @llvm.lifetime.end.p0(i64 8, ptr %4) #7
  call void @llvm.lifetime.end.p0(i64 4, ptr %3) #7
  ret ptr %12
}