; Function Attrs: nounwind uwtable
define hidden ptr @SDL_GetHapticNameForID_REAL(i32 noundef %0) local_unnamed_addr #0 {
  %.not.i = icmp eq i32 %0, 0
  br i1 %.not.i, label %SDL_GetHapticIndex.exit, label %2

2:                                                ; preds = %1
  %3 = tail call i32 @SDL_SYS_NumHaptics() #9
  %4 = icmp sgt i32 %3, 0
  br i1 %4, label %.lr.ph.i, label %SDL_GetHapticIndex.exit

.lr.ph.i:                                         ; preds = %2, %.critedge.i
  %.01216.i = phi i32 [ %6, %.critedge.i ], [ 0, %2 ]
  %5 = tail call i32 @SDL_SYS_HapticInstanceID(i32 noundef %.01216.i) #9
  %.not14.i = icmp eq i32 %5, %0
  br i1 %.not14.i, label %8, label %.critedge.i

.critedge.i:                                      ; preds = %.lr.ph.i
  %6 = add nuw nsw i32 %.01216.i, 1
  %exitcond.not.i = icmp eq i32 %6, %3
  br i1 %exitcond.not.i, label %SDL_GetHapticIndex.exit, label %.lr.ph.i, !llvm.loop !5

SDL_GetHapticIndex.exit:                          ; preds = %.critedge.i, %1, %2
  %7 = tail call zeroext i1 (ptr, ...) @SDL_SetError_REAL(ptr noundef nonnull @.str.20, i32 noundef %0) #9
  br label %11

8:                                                ; preds = %.lr.ph.i
  %9 = tail call ptr @SDL_SYS_HapticName(i32 noundef %.01216.i) #9
  %10 = tail call ptr @SDL_GetPersistentString(ptr noundef %9) #9
  br label %11

11:                                               ; preds = %SDL_GetHapticIndex.exit, %8
  %.0 = phi ptr [ %10, %8 ], [ null, %SDL_GetHapticIndex.exit ]
  ret ptr %.0
}